target datalayout = "e-m:e-p270:32:32-p271:32:32-p272:64:64-i64:64-i128:128-f80:128-n8:16:32:64-S128"
target triple = "x86_64-pc-linux-gnu"

%struct.tcpcl_transfer_t = type { ptr, ptr, ptr }

; Function Attrs: null_pointer_is_valid sspstrong uwtable
define internal ptr @tcpcl_transfer_new() #0 {
  %1 = alloca ptr, align 8
  call void @llvm.lifetime.start.p0(i64 8, ptr %1) #11
  %2 = call ptr @wmem_file_scope()
  %3 = call noalias ptr @wmem_alloc(ptr noundef %2, i64 noundef 24) #12
  store ptr %3, ptr %1, align 8
  %4 = call ptr @wmem_file_scope()
  %5 = call noalias ptr @wmem_list_new(ptr noundef %4)
  %6 = load ptr, ptr %1, align 8
  %7 = getelementptr inbounds nuw %struct.tcpcl_transfer_t, ptr %6, i32 0, i32 0
  store ptr %5, ptr %7, align 8
  %8 = call ptr @wmem_file_scope()
  %9 = call noalias ptr @wmem_list_new(ptr noundef %8)
  %10 = load ptr, ptr %1, align 8
  %11 = getelementptr inbounds nuw %struct.tcpcl_transfer_t, ptr %10, i32 0, i32 1
  store ptr %9, ptr %11, align 8
  %12 = load ptr, ptr %1, align 8
  %13 = getelementptr inbounds nuw %struct.tcpcl_transfer_t, ptr %12, i32 0, i32 2
  store ptr null, ptr %13, align 8
  %14 = load ptr, ptr %1, align 8
  call void @llvm.lifetime.end.p0(i64 8, ptr %1) #11
  ret ptr %14
}

; Function Attrs: null_pointer_is_valid sspstrong uwtable
define internal ptr @get_or_create_transfer_t(ptr noundef %0, i64 noundef %1) #0 {
  %3 = alloca ptr, align 8
  %4 = alloca i64, align 8
  %5 = alloca ptr, align 8
  %6 = alloca ptr, align 8
  store ptr %0, ptr %3, align 8
  store i64 %1, ptr %4, align 8
  call void @llvm.lifetime.start.p0(i64 8, ptr %5) #11
  %7 = load ptr, ptr %3, align 8
  %8 = call ptr @wmem_map_lookup(ptr noundef %7, ptr noundef %4)
  store ptr %8, ptr %5, align 8
  %9 = load ptr, ptr %5, align 8
  %10 = icmp ne ptr %9, null
  br i1 %10, label %21, label %11

11:                                               ; preds = %2
  call void @llvm.lifetime.start.p0(i64 8, ptr %6) #11
  %12 = call ptr @wmem_file_scope()
  %13 = call noalias ptr @wmem_alloc(ptr noundef %12, i64 noundef 8) #12
  store ptr %13, ptr %6, align 8
  %14 = load i64, ptr %4, align 8
  %15 = load ptr, ptr %6, align 8
  store i64 %14, ptr %15, align 8
  %16 = call ptr @tcpcl_transfer_new()
  store ptr %16, ptr %5, align 8
  %17 = load ptr, ptr %3, align 8
  %18 = load ptr, ptr %6, align 8
  %19 = load ptr, ptr %5, align 8
  %20 = call ptr @wmem_map_insert(ptr noundef %17, ptr noundef %18, ptr noundef %19)
  call void @llvm.lifetime.end.p0(i64 8, ptr %6) #11
  br label %21

21:                                               ; preds = %11, %2
  %22 = load ptr, ptr %5, align 8
  call void @llvm.lifetime.end.p0(i64 8, ptr %5) #11
  ret ptr %22
}