; Function Attrs: null_pointer_is_valid sspstrong uwtable
define internal fastcc ptr @get_or_create_transfer_t(ptr noundef %0, i64 noundef %1) unnamed_addr #0 {
  %3 = alloca i64, align 8
  store i64 %1, ptr %3, align 8
  %4 = call ptr @wmem_map_lookup(ptr noundef %0, ptr noundef nonnull %3)
  %.not = icmp eq ptr %4, null
  br i1 %.not, label %5, label %18

5:                                                ; preds = %2
  %6 = call ptr @wmem_file_scope()
  %7 = call noalias dereferenceable_or_null(8) ptr @wmem_alloc(ptr noundef %6, i64 noundef 8) #12
  %8 = load i64, ptr %3, align 8
  store i64 %8, ptr %7, align 8
  %9 = call ptr @wmem_file_scope()
  %10 = call noalias dereferenceable_or_null(24) ptr @wmem_alloc(ptr noundef %9, i64 noundef 24) #12
  %11 = call ptr @wmem_file_scope()
  %12 = call noalias ptr @wmem_list_new(ptr noundef %11)
  store ptr %12, ptr %10, align 8
  %13 = call ptr @wmem_file_scope()
  %14 = call noalias ptr @wmem_list_new(ptr noundef %13)
  %15 = getelementptr inbounds nuw i8, ptr %10, i64 8
  store ptr %14, ptr %15, align 8
  %16 = getelementptr inbounds nuw i8, ptr %10, i64 16
  store ptr null, ptr %16, align 8
  %17 = call ptr @wmem_map_insert(ptr noundef %0, ptr noundef %7, ptr noundef %10)
  br label %18

18:                                               ; preds = %5, %2
  %.0 = phi ptr [ %4, %2 ], [ %10, %5 ]
  ret ptr %.0
}